; Function Attrs: mustprogress nofree norecurse nosync nounwind willreturn memory(read, inaccessiblemem: none) uwtable
define hidden noundef zeroext i1 @_ZN3sat14anf_simplifier16has_relevant_varERKSt4pairINS_7literalES2_E(ptr nocapture noundef nonnull readonly align 8 dereferenceable(96) %this, ptr nocapture noundef nonnull readonly align 4 dereferenceable(8) %b) local_unnamed_addr #9 align 2 {
entry:
  %agg.tmp.sroa.0.0.copyload = load i32, ptr %b, align 4
  %shr.i.i = lshr i32 %agg.tmp.sroa.0.0.copyload, 1
  %m_relevant.i.i = getelementptr inbounds i8, ptr %this, i64 24
  %0 = load ptr, ptr %m_relevant.i.i, align 8
  %idxprom.i.i.i = zext nneg i32 %shr.i.i to i64
  %arrayidx.i.i.i = getelementptr inbounds i8, ptr %0, i64 %idxprom.i.i.i
  %1 = load i8, ptr %arrayidx.i.i.i, align 1
  %2 = and i8 %1, 1
  %tobool.i.i.not = icmp eq i8 %2, 0
  br i1 %tobool.i.i.not, label %lor.rhs, label %lor.end

lor.rhs:                                          ; preds = %entry
  %second = getelementptr inbounds i8, ptr %b, i64 4
  %agg.tmp2.sroa.0.0.copyload = load i32, ptr %second, align 4
  %shr.i.i2 = lshr i32 %agg.tmp2.sroa.0.0.copyload, 1
  %idxprom.i.i.i4 = zext nneg i32 %shr.i.i2 to i64
  %arrayidx.i.i.i5 = getelementptr inbounds i8, ptr %0, i64 %idxprom.i.i.i4
  %3 = load i8, ptr %arrayidx.i.i.i5, align 1
  %4 = and i8 %3, 1
  %tobool.i.i6 = icmp ne i8 %4, 0
  br label %lor.end

lor.end:                                          ; preds = %lor.rhs, %entry
  %5 = phi i1 [ true, %entry ], [ %tobool.i.i6, %lor.rhs ]
  ret i1 %5
}